target datalayout = "e-m:e-p270:32:32-p271:32:32-p272:64:64-i64:64-i128:128-f80:128-n8:16:32:64-S128"
target triple = "x86_64-pc-linux-gnu"

%struct.rb_data_type_struct = type { ptr, %struct.anon.2, ptr, ptr, i64 }
%struct.anon.2 = type { ptr, ptr, ptr, ptr, [1 x ptr] }
%struct.zstream = type { i64, i64, i64, i64, %struct.z_stream_s, ptr }
%struct.z_stream_s = type { ptr, i32, i64, ptr, i32, i64, ptr, ptr, ptr, ptr, ptr, i32, i64, i64 }
%struct.gzfile = type { %struct.zstream, i64, i32, i32, i64, i64, i64, i64, i32, i32, i64, ptr, ptr, ptr, ptr, i64, i64 }
%struct.RString = type { %struct.RBasic, i64, %union.anon }
%struct.RBasic = type { i64, i64 }
%union.anon = type { %struct.anon }
%struct.anon = type { ptr, %union.anon.0 }
%union.anon.0 = type { i64 }

@cGzError = internal global i64 0, align 8
@gzfile_data_type = internal constant %struct.rb_data_type_struct { ptr @.str.163, %struct.anon.2 { ptr @gzfile_mark, ptr @gzfile_free, ptr @gzfile_memsize, ptr null, [1 x ptr] zeroinitializer }, ptr null, ptr null, i64 1 }, align 8
@.str.165 = private unnamed_addr constant [19 x i8] c"closed gzip stream\00", align 1

; Function Attrs: inlinehint nounwind sspstrong willreturn memory(none) uwtable
define internal i64 @RB_INT2FIX(i64 noundef %0) #5 {
  %2 = alloca i64, align 8
  %3 = alloca i64, align 8
  %4 = alloca i64, align 8
  %5 = alloca i64, align 8
  %6 = alloca i64, align 8
  %7 = alloca i64, align 8
  store i64 %0, ptr %2, align 8, !tbaa !6
  call void @llvm.lifetime.start.p0(i64 8, ptr %3) #23
  %8 = load i64, ptr %2, align 8, !tbaa !6
  store i64 %8, ptr %3, align 8, !tbaa !6
  call void @llvm.lifetime.start.p0(i64 8, ptr %4) #23
  %9 = load i64, ptr %3, align 8, !tbaa !6
  %10 = shl i64 %9, 1
  %11 = add i64 %10, 1
  store i64 %11, ptr %4, align 8, !tbaa !6
  call void @llvm.lifetime.start.p0(i64 8, ptr %5) #23
  %12 = load i64, ptr %4, align 8, !tbaa !6
  store i64 %12, ptr %5, align 8, !tbaa !6
  call void @llvm.lifetime.start.p0(i64 8, ptr %6) #23
  %13 = load i64, ptr %5, align 8, !tbaa !6
  store i64 %13, ptr %6, align 8, !tbaa !6
  call void @llvm.lifetime.start.p0(i64 8, ptr %7) #23
  %14 = load i64, ptr %6, align 8, !tbaa !6
  store i64 %14, ptr %7, align 8, !tbaa !6
  %15 = load i64, ptr %7, align 8, !tbaa !6
  call void @llvm.lifetime.end.p0(i64 8, ptr %7) #23
  call void @llvm.lifetime.end.p0(i64 8, ptr %6) #23
  call void @llvm.lifetime.end.p0(i64 8, ptr %5) #23
  call void @llvm.lifetime.end.p0(i64 8, ptr %4) #23
  call void @llvm.lifetime.end.p0(i64 8, ptr %3) #23
  ret i64 %15
}

; Function Attrs: inlinehint nounwind sspstrong willreturn memory(read) uwtable
define internal i64 @RSTRING_LEN(i64 noundef %0) #6 {
  %2 = alloca i64, align 8
  store i64 %0, ptr %2, align 8, !tbaa !6
  %3 = load i64, ptr %2, align 8, !tbaa !6
  %4 = inttoptr i64 %3 to ptr
  %5 = getelementptr inbounds nuw %struct.RString, ptr %4, i32 0, i32 1
  %6 = load i64, ptr %5, align 8, !tbaa !88
  ret i64 %6
}

; Function Attrs: inlinehint nounwind sspstrong willreturn memory(none) uwtable
define internal zeroext i1 @RB_NIL_P(i64 noundef %0) #5 {
  %2 = alloca i64, align 8
  store i64 %0, ptr %2, align 8, !tbaa !6
  %3 = load i64, ptr %2, align 8, !tbaa !6
  %4 = icmp eq i64 %3, 4
  ret i1 %4
}

; Function Attrs: nounwind sspstrong uwtable
define internal ptr @get_gzfile(i64 noundef %0) #0 {
  %2 = alloca i64, align 8
  %3 = alloca ptr, align 8
  store i64 %0, ptr %2, align 8, !tbaa !6
  call void @llvm.lifetime.start.p0(i64 8, ptr %3) #23
  %4 = load i64, ptr %2, align 8, !tbaa !6
  %5 = call ptr @rb_check_typeddata(i64 noundef %4, ptr noundef @gzfile_data_type)
  store ptr %5, ptr %3, align 8, !tbaa !57
  %6 = load ptr, ptr %3, align 8, !tbaa !57
  %7 = getelementptr inbounds nuw %struct.gzfile, ptr %6, i32 0, i32 0
  %8 = getelementptr inbounds nuw %struct.zstream, ptr %7, i32 0, i32 0
  %9 = load i64, ptr %8, align 8, !tbaa !59
  %10 = and i64 %9, 1
  %11 = icmp ne i64 %10, 0
  br i1 %11, label %14, label %12

12:                                               ; preds = %1
  %13 = load i64, ptr @cGzError, align 8, !tbaa !6
  call void (i64, ptr, ...) @rb_raise(i64 noundef %13, ptr noundef @.str.165) #26
  unreachable

14:                                               ; preds = %1
  %15 = load ptr, ptr %3, align 8, !tbaa !57
  call void @llvm.lifetime.end.p0(i64 8, ptr %3) #23
  ret ptr %15
}

; Function Attrs: nounwind sspstrong uwtable
define internal i64 @rb_gzfile_total_out(i64 noundef %0) #0 {
  %2 = alloca i64, align 8
  %3 = alloca i64, align 8
  %4 = alloca ptr, align 8
  %5 = alloca i64, align 8
  %6 = alloca i64, align 8
  %7 = alloca i32, align 4
  store i64 %0, ptr %3, align 8, !tbaa !6
  call void @llvm.lifetime.start.p0(i64 8, ptr %4) #23
  %8 = load i64, ptr %3, align 8, !tbaa !6
  %9 = call ptr @get_gzfile(i64 noundef %8)
  store ptr %9, ptr %4, align 8, !tbaa !57
  call void @llvm.lifetime.start.p0(i64 8, ptr %5) #23
  %10 = load ptr, ptr %4, align 8, !tbaa !57
  %11 = getelementptr inbounds nuw %struct.gzfile, ptr %10, i32 0, i32 0
  %12 = getelementptr inbounds nuw %struct.zstream, ptr %11, i32 0, i32 4
  %13 = getelementptr inbounds nuw %struct.z_stream_s, ptr %12, i32 0, i32 5
  %14 = load i64, ptr %13, align 8, !tbaa !62
  store i64 %14, ptr %5, align 8, !tbaa !6
  call void @llvm.lifetime.start.p0(i64 8, ptr %6) #23
  %15 = load ptr, ptr %4, align 8, !tbaa !57
  %16 = getelementptr inbounds nuw %struct.gzfile, ptr %15, i32 0, i32 0
  %17 = getelementptr inbounds nuw %struct.zstream, ptr %16, i32 0, i32 1
  %18 = load i64, ptr %17, align 8, !tbaa !60
  %19 = call zeroext i1 @RB_NIL_P(i64 noundef %18) #24
  br i1 %19, label %20, label %21

20:                                               ; preds = %1
  br label %27

21:                                               ; preds = %1
  %22 = load ptr, ptr %4, align 8, !tbaa !57
  %23 = getelementptr inbounds nuw %struct.gzfile, ptr %22, i32 0, i32 0
  %24 = getelementptr inbounds nuw %struct.zstream, ptr %23, i32 0, i32 1
  %25 = load i64, ptr %24, align 8, !tbaa !60
  %26 = call i64 @RSTRING_LEN(i64 noundef %25) #25
  br label %27

27:                                               ; preds = %21, %20
  %28 = phi i64 [ 0, %20 ], [ %26, %21 ]
  store i64 %28, ptr %6, align 8, !tbaa !6
  %29 = load i64, ptr %5, align 8, !tbaa !6
  %30 = load i64, ptr %6, align 8, !tbaa !6
  %31 = icmp uge i64 %29, %30
  br i1 %31, label %32, label %37

32:                                               ; preds = %27
  %33 = load i64, ptr %5, align 8, !tbaa !6
  %34 = load i64, ptr %6, align 8, !tbaa !6
  %35 = sub i64 %33, %34
  %36 = call i64 @rb_uint2inum(i64 noundef %35)
  store i64 %36, ptr %2, align 8
  store i32 1, ptr %7, align 4
  br label %43

37:                                               ; preds = %27
  %38 = load i64, ptr %6, align 8, !tbaa !6
  %39 = load i64, ptr %5, align 8, !tbaa !6
  %40 = sub nsw i64 %38, %39
  %41 = sub nsw i64 0, %40
  %42 = call i64 @RB_INT2FIX(i64 noundef %41) #24
  store i64 %42, ptr %2, align 8
  store i32 1, ptr %7, align 4
  br label %43

43:                                               ; preds = %37, %32
  call void @llvm.lifetime.end.p0(i64 8, ptr %6) #23
  call void @llvm.lifetime.end.p0(i64 8, ptr %5) #23
  call void @llvm.lifetime.end.p0(i64 8, ptr %4) #23
  %44 = load i64, ptr %2, align 8
  ret i64 %44
}