; Function Attrs: nounwind sspstrong uwtable
define internal i64 @rb_gzfile_total_out(i64 noundef %0) #0 {
  %2 = tail call ptr @rb_check_typeddata(i64 noundef %0, ptr noundef nonnull @gzfile_data_type) #18
  %3 = load i64, ptr %2, align 8, !tbaa !113
  %4 = and i64 %3, 1
  %.not.i = icmp eq i64 %4, 0
  br i1 %.not.i, label %5, label %get_gzfile.exit

5:                                                ; preds = %1
  %6 = load i64, ptr @cGzError, align 8, !tbaa !6
  tail call void (i64, ptr, ...) @rb_raise(i64 noundef %6, ptr noundef nonnull @.str.165) #19
  unreachable

get_gzfile.exit:                                  ; preds = %1
  %7 = getelementptr inbounds nuw i8, ptr %2, i64 72
  %8 = load i64, ptr %7, align 8, !tbaa !134
  %9 = getelementptr inbounds nuw i8, ptr %2, i64 8
  %10 = load i64, ptr %9, align 8, !tbaa !132
  %11 = icmp eq i64 %10, 4
  br i1 %11, label %.thread, label %12

12:                                               ; preds = %get_gzfile.exit
  %13 = inttoptr i64 %10 to ptr
  %14 = getelementptr inbounds nuw i8, ptr %13, i64 16
  %15 = load i64, ptr %14, align 8, !tbaa !21
  %.not = icmp ult i64 %8, %15
  br i1 %.not, label %19, label %.thread

.thread:                                          ; preds = %get_gzfile.exit, %12
  %16 = phi i64 [ %15, %12 ], [ 0, %get_gzfile.exit ]
  %17 = sub nuw i64 %8, %16
  %18 = tail call i64 @rb_uint2inum(i64 noundef %17) #18
  br label %22

19:                                               ; preds = %12
  %.neg = sub nsw i64 %8, %15
  %20 = shl i64 %.neg, 1
  %21 = or disjoint i64 %20, 1
  br label %22

22:                                               ; preds = %19, %.thread
  %.0 = phi i64 [ %18, %.thread ], [ %21, %19 ]
  ret i64 %.0
}